target datalayout = "e-m:e-p270:32:32-p271:32:32-p272:64:64-i64:64-i128:128-f80:128-n8:16:32:64-S128"
target triple = "x86_64-pc-linux-gnu"

%struct.h5tool_format_t = type { i8, ptr, ptr, ptr, ptr, ptr, ptr, ptr, ptr, ptr, ptr, ptr, ptr, ptr, ptr, ptr, ptr, ptr, i32, i32, i32, ptr, ptr, ptr, i32, ptr, ptr, ptr, ptr, ptr, ptr, ptr, ptr, ptr, ptr, ptr, ptr, ptr, ptr, ptr, ptr, i32, i64, ptr, ptr, ptr, ptr, ptr, i32, ptr, i32, i32, ptr, i32, ptr, ptr, ptr, ptr, i32, i32 }
%union.anon = type { ptr }

@.str.1 = private unnamed_addr constant [2 x i8] c",\00", align 1
@.str.6 = private unnamed_addr constant [6 x i8] c"%s%lu\00", align 1
@.str.7 = private unnamed_addr constant [2 x i8] c"(\00", align 1
@.str.8 = private unnamed_addr constant [2 x i8] c")\00", align 1
@.str.16 = private unnamed_addr constant [4 x i8] c",\01 \00", align 1
@.str.17 = private unnamed_addr constant [1 x i8] zeroinitializer, align 1
@.str.18 = private unnamed_addr constant [4 x i8] c")-(\00", align 1

; Function Attrs: nounwind uwtable
define void @h5tools_str_dump_space_blocks(ptr noundef %0, i64 noundef %1, ptr noundef %2) #0 {
  %4 = alloca ptr, align 8
  %5 = alloca i64, align 8
  %6 = alloca ptr, align 8
  %7 = alloca i64, align 8
  %8 = alloca i32, align 4
  %9 = alloca %union.anon, align 8
  %10 = alloca ptr, align 8
  %11 = alloca i64, align 8
  %12 = alloca i64, align 8
  %13 = alloca ptr, align 8
  %14 = alloca i64, align 8
  %15 = alloca i32, align 4
  %16 = alloca i32, align 4
  store ptr %0, ptr %4, align 8, !tbaa !3
  store i64 %1, ptr %5, align 8, !tbaa !17
  store ptr %2, ptr %6, align 8, !tbaa !19
  call void @llvm.lifetime.start.p0(i64 8, ptr %7) #12
  call void @llvm.lifetime.start.p0(i64 4, ptr %8) #12
  call void @llvm.lifetime.start.p0(i64 8, ptr %9) #12
  call void @llvm.lifetime.start.p0(i64 8, ptr %10) #12
  %17 = call i32 @H5Eauto_is_v2(i64 noundef 0, ptr noundef %8)
  %18 = load i32, ptr %8, align 4, !tbaa !15
  %19 = icmp ne i32 %18, 0
  br i1 %19, label %20, label %23

20:                                               ; preds = %3
  %21 = call i32 @H5Eget_auto2(i64 noundef 0, ptr noundef %9, ptr noundef %10)
  %22 = call i32 @H5Eset_auto2(i64 noundef 0, ptr noundef null, ptr noundef null)
  br label %26

23:                                               ; preds = %3
  %24 = call i32 @H5Eget_auto1(ptr noundef %9, ptr noundef %10)
  %25 = call i32 @H5Eset_auto1(ptr noundef null, ptr noundef null)
  br label %26

26:                                               ; preds = %23, %20
  %27 = load i64, ptr %5, align 8, !tbaa !17
  %28 = call i64 @H5Sget_select_hyper_nblocks(i64 noundef %27)
  store i64 %28, ptr %7, align 8, !tbaa !17
  %29 = load i32, ptr %8, align 4, !tbaa !15
  %30 = icmp ne i32 %29, 0
  br i1 %30, label %31, label %35

31:                                               ; preds = %26
  %32 = load ptr, ptr %9, align 8, !tbaa !18
  %33 = load ptr, ptr %10, align 8, !tbaa !46
  %34 = call i32 @H5Eset_auto2(i64 noundef 0, ptr noundef %32, ptr noundef %33)
  br label %39

35:                                               ; preds = %26
  %36 = load ptr, ptr %9, align 8, !tbaa !18
  %37 = load ptr, ptr %10, align 8, !tbaa !46
  %38 = call i32 @H5Eset_auto1(ptr noundef %36, ptr noundef %37)
  br label %39

39:                                               ; preds = %35, %31
  call void @llvm.lifetime.end.p0(i64 8, ptr %10) #12
  call void @llvm.lifetime.end.p0(i64 8, ptr %9) #12
  call void @llvm.lifetime.end.p0(i64 4, ptr %8) #12
  %40 = load i64, ptr %7, align 8, !tbaa !17
  %41 = icmp sgt i64 %40, 0
  br i1 %41, label %42, label %132

42:                                               ; preds = %39
  call void @llvm.lifetime.start.p0(i64 8, ptr %11) #12
  call void @llvm.lifetime.start.p0(i64 8, ptr %12) #12
  call void @llvm.lifetime.start.p0(i64 8, ptr %13) #12
  call void @llvm.lifetime.start.p0(i64 8, ptr %14) #12
  call void @llvm.lifetime.start.p0(i64 4, ptr %15) #12
  %43 = load i64, ptr %5, align 8, !tbaa !17
  %44 = call i32 @H5Sget_simple_extent_ndims(i64 noundef %43)
  store i32 %44, ptr %15, align 4, !tbaa !15
  %45 = load i64, ptr %7, align 8, !tbaa !17
  store i64 %45, ptr %12, align 8, !tbaa !17
  %46 = load i64, ptr %12, align 8, !tbaa !17
  %47 = load i32, ptr %15, align 4, !tbaa !15
  %48 = zext i32 %47 to i64
  %49 = mul i64 %46, %48
  %50 = mul i64 %49, 2
  %51 = mul i64 %50, 8
  store i64 %51, ptr %11, align 8, !tbaa !17
  %52 = load i64, ptr %11, align 8, !tbaa !17
  %53 = call noalias ptr @malloc(i64 noundef %52) #15
  store ptr %53, ptr %13, align 8, !tbaa !34
  %54 = load i64, ptr %5, align 8, !tbaa !17
  %55 = load i64, ptr %12, align 8, !tbaa !17
  %56 = load ptr, ptr %13, align 8, !tbaa !34
  %57 = call i32 @H5Sget_select_hyper_blocklist(i64 noundef %54, i64 noundef 0, i64 noundef %55, ptr noundef %56)
  store i64 0, ptr %14, align 8, !tbaa !17
  br label %58

58:                                               ; preds = %127, %42
  %59 = load i64, ptr %14, align 8, !tbaa !17
  %60 = load i64, ptr %12, align 8, !tbaa !17
  %61 = icmp ult i64 %59, %60
  br i1 %61, label %62, label %130

62:                                               ; preds = %58
  call void @llvm.lifetime.start.p0(i64 4, ptr %16) #12
  %63 = load ptr, ptr %4, align 8, !tbaa !3
  %64 = load ptr, ptr %6, align 8, !tbaa !19
  %65 = getelementptr inbounds nuw %struct.h5tool_format_t, ptr %64, i32 0, i32 55
  %66 = load ptr, ptr %65, align 8, !tbaa !47
  %67 = load i64, ptr %14, align 8, !tbaa !17
  %68 = icmp ne i64 %67, 0
  %69 = select i1 %68, ptr @.str.16, ptr @.str.17
  %70 = load i64, ptr %14, align 8, !tbaa !17
  %71 = call ptr (ptr, ptr, ...) @h5tools_str_append(ptr noundef %63, ptr noundef %66, ptr noundef %69, i64 noundef %70)
  store i32 0, ptr %16, align 4, !tbaa !15
  br label %72

72:                                               ; preds = %93, %62
  %73 = load i32, ptr %16, align 4, !tbaa !15
  %74 = load i32, ptr %15, align 4, !tbaa !15
  %75 = icmp ult i32 %73, %74
  br i1 %75, label %76, label %96

76:                                               ; preds = %72
  %77 = load ptr, ptr %4, align 8, !tbaa !3
  %78 = load i32, ptr %16, align 4, !tbaa !15
  %79 = icmp ne i32 %78, 0
  %80 = select i1 %79, ptr @.str.1, ptr @.str.7
  %81 = load ptr, ptr %13, align 8, !tbaa !34
  %82 = load i64, ptr %14, align 8, !tbaa !17
  %83 = mul i64 %82, 2
  %84 = load i32, ptr %15, align 4, !tbaa !15
  %85 = zext i32 %84 to i64
  %86 = mul i64 %83, %85
  %87 = load i32, ptr %16, align 4, !tbaa !15
  %88 = zext i32 %87 to i64
  %89 = add i64 %86, %88
  %90 = getelementptr inbounds nuw i64, ptr %81, i64 %89
  %91 = load i64, ptr %90, align 8, !tbaa !17
  %92 = call ptr (ptr, ptr, ...) @h5tools_str_append(ptr noundef %77, ptr noundef @.str.6, ptr noundef %80, i64 noundef %91)
  br label %93

93:                                               ; preds = %76
  %94 = load i32, ptr %16, align 4, !tbaa !15
  %95 = add i32 %94, 1
  store i32 %95, ptr %16, align 4, !tbaa !15
  br label %72, !llvm.loop !48

96:                                               ; preds = %72
  store i32 0, ptr %16, align 4, !tbaa !15
  br label %97

97:                                               ; preds = %121, %96
  %98 = load i32, ptr %16, align 4, !tbaa !15
  %99 = load i32, ptr %15, align 4, !tbaa !15
  %100 = icmp ult i32 %98, %99
  br i1 %100, label %101, label %124

101:                                              ; preds = %97
  %102 = load ptr, ptr %4, align 8, !tbaa !3
  %103 = load i32, ptr %16, align 4, !tbaa !15
  %104 = icmp ne i32 %103, 0
  %105 = select i1 %104, ptr @.str.1, ptr @.str.18
  %106 = load ptr, ptr %13, align 8, !tbaa !34
  %107 = load i64, ptr %14, align 8, !tbaa !17
  %108 = mul i64 %107, 2
  %109 = load i32, ptr %15, align 4, !tbaa !15
  %110 = zext i32 %109 to i64
  %111 = mul i64 %108, %110
  %112 = load i32, ptr %16, align 4, !tbaa !15
  %113 = zext i32 %112 to i64
  %114 = add i64 %111, %113
  %115 = load i32, ptr %15, align 4, !tbaa !15
  %116 = zext i32 %115 to i64
  %117 = add i64 %114, %116
  %118 = getelementptr inbounds nuw i64, ptr %106, i64 %117
  %119 = load i64, ptr %118, align 8, !tbaa !17
  %120 = call ptr (ptr, ptr, ...) @h5tools_str_append(ptr noundef %102, ptr noundef @.str.6, ptr noundef %105, i64 noundef %119)
  br label %121

121:                                              ; preds = %101
  %122 = load i32, ptr %16, align 4, !tbaa !15
  %123 = add i32 %122, 1
  store i32 %123, ptr %16, align 4, !tbaa !15
  br label %97, !llvm.loop !49

124:                                              ; preds = %97
  %125 = load ptr, ptr %4, align 8, !tbaa !3
  %126 = call ptr (ptr, ptr, ...) @h5tools_str_append(ptr noundef %125, ptr noundef @.str.8)
  call void @llvm.lifetime.end.p0(i64 4, ptr %16) #12
  br label %127

127:                                              ; preds = %124
  %128 = load i64, ptr %14, align 8, !tbaa !17
  %129 = add i64 %128, 1
  store i64 %129, ptr %14, align 8, !tbaa !17
  br label %58, !llvm.loop !50

130:                                              ; preds = %58
  %131 = load ptr, ptr %13, align 8, !tbaa !34
  call void @free(ptr noundef %131) #12
  call void @llvm.lifetime.end.p0(i64 4, ptr %15) #12
  call void @llvm.lifetime.end.p0(i64 8, ptr %14) #12
  call void @llvm.lifetime.end.p0(i64 8, ptr %13) #12
  call void @llvm.lifetime.end.p0(i64 8, ptr %12) #12
  call void @llvm.lifetime.end.p0(i64 8, ptr %11) #12
  br label %132

132:                                              ; preds = %130, %39
  call void @llvm.lifetime.end.p0(i64 8, ptr %7) #12
  ret void
}