; Function Attrs: nounwind uwtable
define void @h5tools_str_dump_space_blocks(ptr noundef captures(none) %0, i64 noundef %1, ptr noundef readonly captures(none) %2) local_unnamed_addr #4 {
  %4 = alloca i32, align 4
  %5 = alloca %union.anon, align 8
  %6 = alloca ptr, align 8
  call void @llvm.lifetime.start.p0(i64 4, ptr nonnull %4) #21
  call void @llvm.lifetime.start.p0(i64 8, ptr nonnull %5) #21
  call void @llvm.lifetime.start.p0(i64 8, ptr nonnull %6) #21
  %7 = call i32 @H5Eauto_is_v2(i64 noundef 0, ptr noundef nonnull %4) #21
  %8 = load i32, ptr %4, align 4, !tbaa !36
  %.not = icmp eq i32 %8, 0
  br i1 %.not, label %12, label %9

9:                                                ; preds = %3
  %10 = call i32 @H5Eget_auto2(i64 noundef 0, ptr noundef nonnull %5, ptr noundef nonnull %6) #21
  %11 = call i32 @H5Eset_auto2(i64 noundef 0, ptr noundef null, ptr noundef null) #21
  br label %15

12:                                               ; preds = %3
  %13 = call i32 @H5Eget_auto1(ptr noundef nonnull %5, ptr noundef nonnull %6) #21
  %14 = call i32 @H5Eset_auto1(ptr noundef null, ptr noundef null) #21
  br label %15

15:                                               ; preds = %12, %9
  %16 = call i64 @H5Sget_select_hyper_nblocks(i64 noundef %1) #21
  %17 = load i32, ptr %4, align 4, !tbaa !36
  %.not40 = icmp eq i32 %17, 0
  %18 = load ptr, ptr %5, align 8, !tbaa !12
  %19 = load ptr, ptr %6, align 8, !tbaa !37
  br i1 %.not40, label %22, label %20

20:                                               ; preds = %15
  %21 = call i32 @H5Eset_auto2(i64 noundef 0, ptr noundef %18, ptr noundef %19) #21
  br label %24

22:                                               ; preds = %15
  %23 = call i32 @H5Eset_auto1(ptr noundef %18, ptr noundef %19) #21
  br label %24

24:                                               ; preds = %22, %20
  call void @llvm.lifetime.end.p0(i64 8, ptr nonnull %6) #21
  call void @llvm.lifetime.end.p0(i64 8, ptr nonnull %5) #21
  call void @llvm.lifetime.end.p0(i64 4, ptr nonnull %4) #21
  %25 = icmp sgt i64 %16, 0
  br i1 %25, label %26, label %54

26:                                               ; preds = %24
  %27 = call i32 @H5Sget_simple_extent_ndims(i64 noundef %1) #21
  %.fr67 = freeze i32 %27
  %28 = zext i32 %.fr67 to i64
  %29 = shl i64 %16, 4
  %30 = mul i64 %29, %28
  %31 = call noalias ptr @malloc(i64 noundef %30) #22
  %32 = call i32 @H5Sget_select_hyper_blocklist(i64 noundef %1, i64 noundef 0, i64 noundef %16, ptr noundef %31) #21
  %33 = getelementptr inbounds nuw i8, ptr %2, i64 424
  %factor.op.mul49 = shl nuw nsw i64 %28, 1
  %invariant.gep50 = getelementptr i64, ptr %31, i64 %28
  %.not68 = icmp eq i32 %.fr67, 0
  br i1 %.not68, label %.preheader, label %.lr.ph.us.us

.lr.ph.us.us:                                     ; preds = %26, %._crit_edge.us.us
  %.03752.us.us = phi i64 [ %48, %._crit_edge.us.us ], [ 0, %26 ]
  %34 = load ptr, ptr %33, align 8, !tbaa !38
  %.not41.us.us = icmp eq i64 %.03752.us.us, 0
  %35 = select i1 %.not41.us.us, ptr @.str.17, ptr @.str.16
  %36 = call ptr (ptr, ptr, ...) @h5tools_str_append(ptr noundef %0, ptr noundef %34, ptr noundef nonnull %35, i64 noundef %.03752.us.us)
  %factor.op.mul.reass.us.us = mul i64 %factor.op.mul49, %.03752.us.us
  %37 = getelementptr i64, ptr %31, i64 %factor.op.mul.reass.us.us
  br label %42

38:                                               ; preds = %..preheader_crit_edge.us.us, %38
  %indvars.iv74 = phi i64 [ 0, %..preheader_crit_edge.us.us ], [ %indvars.iv.next75, %38 ]
  %.not42.us.us = icmp eq i64 %indvars.iv74, 0
  %39 = select i1 %.not42.us.us, ptr @.str.18, ptr @.str.1
  %gep.us.us = getelementptr i64, ptr %gep51.us.us, i64 %indvars.iv74
  %40 = load i64, ptr %gep.us.us, align 8, !tbaa !22
  %41 = call ptr (ptr, ptr, ...) @h5tools_str_append(ptr noundef %0, ptr noundef nonnull @.str.6, ptr noundef nonnull %39, i64 noundef %40)
  %indvars.iv.next75 = add nuw nsw i64 %indvars.iv74, 1
  %exitcond78.not = icmp eq i64 %indvars.iv.next75, %28
  br i1 %exitcond78.not, label %._crit_edge.us.us, label %38, !llvm.loop !39

42:                                               ; preds = %42, %.lr.ph.us.us
  %indvars.iv = phi i64 [ %indvars.iv.next, %42 ], [ 0, %.lr.ph.us.us ]
  %.not43.us.us = icmp eq i64 %indvars.iv, 0
  %43 = select i1 %.not43.us.us, ptr @.str.7, ptr @.str.1
  %44 = getelementptr i64, ptr %37, i64 %indvars.iv
  %45 = load i64, ptr %44, align 8, !tbaa !22
  %46 = call ptr (ptr, ptr, ...) @h5tools_str_append(ptr noundef %0, ptr noundef nonnull @.str.6, ptr noundef nonnull %43, i64 noundef %45)
  %indvars.iv.next = add nuw nsw i64 %indvars.iv, 1
  %exitcond.not = icmp eq i64 %indvars.iv.next, %28
  br i1 %exitcond.not, label %..preheader_crit_edge.us.us, label %42, !llvm.loop !40

..preheader_crit_edge.us.us:                      ; preds = %42
  %gep51.us.us = getelementptr i64, ptr %invariant.gep50, i64 %factor.op.mul.reass.us.us
  br label %38

._crit_edge.us.us:                                ; preds = %38
  %47 = call ptr (ptr, ptr, ...) @h5tools_str_append(ptr noundef %0, ptr noundef nonnull @.str.8)
  %48 = add nuw i64 %.03752.us.us, 1
  %exitcond79.not = icmp eq i64 %48, %16
  br i1 %exitcond79.not, label %.split54.us, label %.lr.ph.us.us, !llvm.loop !41

.preheader:                                       ; preds = %26, %.preheader
  %.03752 = phi i64 [ %53, %.preheader ], [ 0, %26 ]
  %49 = load ptr, ptr %33, align 8, !tbaa !38
  %.not41 = icmp eq i64 %.03752, 0
  %50 = select i1 %.not41, ptr @.str.17, ptr @.str.16
  %51 = call ptr (ptr, ptr, ...) @h5tools_str_append(ptr noundef %0, ptr noundef %49, ptr noundef nonnull %50, i64 noundef %.03752)
  %52 = call ptr (ptr, ptr, ...) @h5tools_str_append(ptr noundef %0, ptr noundef nonnull @.str.8)
  %53 = add nuw i64 %.03752, 1
  %exitcond88.not = icmp eq i64 %53, %16
  br i1 %exitcond88.not, label %.split54.us, label %.preheader, !llvm.loop !41

.split54.us:                                      ; preds = %._crit_edge.us.us, %.preheader
  call void @free(ptr noundef %31) #21
  br label %54

54:                                               ; preds = %.split54.us, %24
  ret void
}